; Function Attrs: inlinehint mustprogress nounwind uwtable
define internal fastcc void @_ZN11flatbuffers6python12_GLOBAL__N_119PythonStubGeneratorD2Ev(ptr noundef nonnull align 8 dereferenceable(406) initializes((8, 16)) %0) unnamed_addr #2 align 2 personality ptr @__gxx_personality_v0 {
  %2 = getelementptr inbounds nuw i8, ptr %0, i64 8
  store ptr getelementptr inbounds nuw inrange(-16, 184) (i8, ptr @_ZTVN11flatbuffers5NamerE, i64 16), ptr %2, align 8, !tbaa !15
  %3 = getelementptr inbounds nuw i8, ptr %0, i64 352
  %4 = getelementptr inbounds nuw i8, ptr %0, i64 368
  %5 = load ptr, ptr %4, align 8, !tbaa !136
  invoke void @_ZNSt8_Rb_treeINSt7__cxx1112basic_stringIcSt11char_traitsIcESaIcEEES5_St9_IdentityIS5_ESt4lessIS5_ESaIS5_EE8_M_eraseEPSt13_Rb_tree_nodeIS5_E(ptr noundef nonnull align 8 dereferenceable(48) %3, ptr noundef %5)
          to label %_ZN11flatbuffers5NamerD2Ev.exit unwind label %6

6:                                                ; preds = %1
  %7 = landingpad { ptr, i32 }
          catch ptr null
  %8 = extractvalue { ptr, i32 } %7, 0
  tail call void @__clang_call_terminate(ptr %8) #28
  unreachable

_ZN11flatbuffers5NamerD2Ev.exit:                  ; preds = %1
  %9 = getelementptr inbounds nuw i8, ptr %0, i64 16
  tail call void @_ZN11flatbuffers5Namer6ConfigD2Ev(ptr noundef nonnull align 8 dereferenceable(336) %9) #27
  ret void
}